target datalayout = "e-m:e-p270:32:32-p271:32:32-p272:64:64-i64:64-i128:128-f80:128-n8:16:32:64-S128"
target triple = "x86_64-pc-linux-gnu"

%"class.std::__cxx11::basic_string" = type { %"struct.std::__cxx11::basic_string<char>::_Alloc_hider", i64, %union.anon }
%"struct.std::__cxx11::basic_string<char>::_Alloc_hider" = type { ptr }
%union.anon = type { i64, [8 x i8] }
%struct.TimeResults = type { i32, i32 }
%"class.std::function" = type { %"class.std::_Function_base", ptr }
%"class.std::_Function_base" = type { %"union.std::_Any_data", ptr }
%"union.std::_Any_data" = type { %"union.std::_Nocopy_types" }
%"union.std::_Nocopy_types" = type { { i64, i64 } }
%class.anon.7 = type { ptr, ptr, i64, ptr }

@stderr = external global ptr, align 8
@.str.30 = private unnamed_addr constant [56 x i8] c"Did %u %s operations in %uus (%.1f ops/sec): %.1f MB/s\0A\00", align 1
@.str.32 = private unnamed_addr constant [27 x i8] c"EVP_DigestInit_ex failed.\0A\00", align 1

; Function Attrs: mustprogress nounwind uwtable
define linkonce_odr noundef ptr @_ZNSt9_Any_data9_M_accessEv(ptr noundef nonnull align 8 dereferenceable(16) %0) #2 comdat align 2 {
  %2 = alloca ptr, align 8
  store ptr %0, ptr %2, align 8, !tbaa !92
  %3 = load ptr, ptr %2, align 8
  %4 = getelementptr inbounds [16 x i8], ptr %3, i64 0, i64 0
  ret ptr %4
}

; Function Attrs: mustprogress nounwind uwtable
define internal noundef nonnull align 8 dereferenceable(8) ptr @"_ZNSt9_Any_data9_M_accessIPZL14SpeedHashChunkPK9env_md_stRKNSt7__cxx1112basic_stringIcSt11char_traitsIcESaIcEEEmE3$_0EERT_v"(ptr noundef nonnull align 8 dereferenceable(16) %0) #2 align 2 {
  %2 = alloca ptr, align 8
  store ptr %0, ptr %2, align 8, !tbaa !92
  %3 = load ptr, ptr %2, align 8
  %4 = call noundef ptr @_ZNSt9_Any_data9_M_accessEv(ptr noundef nonnull align 8 dereferenceable(16) %3) #14
  ret ptr %4
}

; Function Attrs: mustprogress nounwind uwtable
define available_externally noundef ptr @_ZNKSt7__cxx1112basic_stringIcSt11char_traitsIcESaIcEE7_M_dataEv(ptr noundef nonnull align 8 dereferenceable(32) %0) #2 align 2 {
  %2 = alloca ptr, align 8
  store ptr %0, ptr %2, align 8, !tbaa !17
  %3 = load ptr, ptr %2, align 8
  %4 = getelementptr inbounds nuw %"class.std::__cxx11::basic_string", ptr %3, i32 0, i32 0
  %5 = getelementptr inbounds nuw %"struct.std::__cxx11::basic_string<char>::_Alloc_hider", ptr %4, i32 0, i32 0
  %6 = load ptr, ptr %5, align 8, !tbaa !71
  ret ptr %6
}

; Function Attrs: mustprogress uwtable
define internal void @"_ZNSt14_Function_base13_Base_managerIZL14SpeedHashChunkPK9env_md_stRKNSt7__cxx1112basic_stringIcSt11char_traitsIcESaIcEEEmE3$_0E9_M_createISC_EEvRSt9_Any_dataOT_St17integral_constantIbLb0EE"(ptr noundef nonnull align 8 dereferenceable(16) %0, ptr noundef nonnull align 8 dereferenceable(32) %1) #0 align 2 {
  %3 = alloca ptr, align 8
  %4 = alloca ptr, align 8
  store ptr %0, ptr %3, align 8, !tbaa !92
  store ptr %1, ptr %4, align 8, !tbaa !59
  %5 = call noalias noundef nonnull ptr @_Znwm(i64 noundef 32) #16
  %6 = load ptr, ptr %4, align 8, !tbaa !59
  call void @llvm.memcpy.p0.p0.i64(ptr align 16 %5, ptr align 8 %6, i64 32, i1 false), !tbaa.struct !133
  %7 = load ptr, ptr %3, align 8, !tbaa !92
  %8 = call noundef nonnull align 8 dereferenceable(8) ptr @"_ZNSt9_Any_data9_M_accessIPZL14SpeedHashChunkPK9env_md_stRKNSt7__cxx1112basic_stringIcSt11char_traitsIcESaIcEEEmE3$_0EERT_v"(ptr noundef nonnull align 8 dereferenceable(16) %7) #14
  store ptr %5, ptr %8, align 8, !tbaa !59
  ret void
}

; Function Attrs: mustprogress nounwind uwtable
define available_externally noundef ptr @_ZNKSt7__cxx1112basic_stringIcSt11char_traitsIcESaIcEE5c_strEv(ptr noundef nonnull align 8 dereferenceable(32) %0) #2 align 2 {
  %2 = alloca ptr, align 8
  store ptr %0, ptr %2, align 8, !tbaa !17
  %3 = load ptr, ptr %2, align 8
  %4 = call noundef ptr @_ZNKSt7__cxx1112basic_stringIcSt11char_traitsIcESaIcEE7_M_dataEv(ptr noundef nonnull align 8 dereferenceable(32) %3)
  ret ptr %4
}

; Function Attrs: mustprogress uwtable
define internal void @"_ZNSt14_Function_base13_Base_managerIZL14SpeedHashChunkPK9env_md_stRKNSt7__cxx1112basic_stringIcSt11char_traitsIcESaIcEEEmE3$_0E15_M_init_functorISC_EEvRSt9_Any_dataOT_"(ptr noundef nonnull align 8 dereferenceable(16) %0, ptr noundef nonnull align 8 dereferenceable(32) %1) #0 align 2 {
  %3 = alloca ptr, align 8
  %4 = alloca ptr, align 8
  store ptr %0, ptr %3, align 8, !tbaa !92
  store ptr %1, ptr %4, align 8, !tbaa !59
  %5 = load ptr, ptr %3, align 8, !tbaa !92
  %6 = load ptr, ptr %4, align 8, !tbaa !59
  call void @"_ZNSt14_Function_base13_Base_managerIZL14SpeedHashChunkPK9env_md_stRKNSt7__cxx1112basic_stringIcSt11char_traitsIcESaIcEEEmE3$_0E9_M_createISC_EEvRSt9_Any_dataOT_St17integral_constantIbLb0EE"(ptr noundef nonnull align 8 dereferenceable(16) %5, ptr noundef nonnull align 8 dereferenceable(32) %6)
  ret void
}

; Function Attrs: mustprogress nounwind uwtable
define internal noundef zeroext i1 @"_ZNSt14_Function_base13_Base_managerIZL14SpeedHashChunkPK9env_md_stRKNSt7__cxx1112basic_stringIcSt11char_traitsIcESaIcEEEmE3$_0E21_M_not_empty_functionISC_EEbRKT_"(ptr noundef nonnull align 8 dereferenceable(32) %0) #2 align 2 {
  %2 = alloca ptr, align 8
  store ptr %0, ptr %2, align 8, !tbaa !59
  ret i1 true
}

; Function Attrs: mustprogress nounwind uwtable
define linkonce_odr void @_ZNSt14_Function_baseC2Ev(ptr noundef nonnull align 8 dereferenceable(24) %0) unnamed_addr #2 comdat align 2 {
  %2 = alloca ptr, align 8
  store ptr %0, ptr %2, align 8, !tbaa !64
  %3 = load ptr, ptr %2, align 8
  %4 = getelementptr inbounds nuw %"class.std::_Function_base", ptr %3, i32 0, i32 0
  store ptr null, ptr %4, align 8, !tbaa !91
  %5 = getelementptr inbounds nuw %"class.std::_Function_base", ptr %3, i32 0, i32 1
  store ptr null, ptr %5, align 8, !tbaa !63
  ret void
}

; Function Attrs: mustprogress uwtable
define linkonce_odr hidden void @_ZN11TimeResults14PrintWithBytesERKNSt7__cxx1112basic_stringIcSt11char_traitsIcESaIcEEEm(ptr noundef nonnull align 4 dereferenceable(8) %0, ptr noundef nonnull align 8 dereferenceable(32) %1, i64 noundef %2) #0 comdat align 2 {
  %4 = alloca ptr, align 8
  %5 = alloca ptr, align 8
  %6 = alloca i64, align 8
  store ptr %0, ptr %4, align 8, !tbaa !49
  store ptr %1, ptr %5, align 8, !tbaa !17
  store i64 %2, ptr %6, align 8, !tbaa !13
  %7 = load ptr, ptr %4, align 8
  %8 = getelementptr inbounds nuw %struct.TimeResults, ptr %7, i32 0, i32 0
  %9 = load i32, ptr %8, align 4, !tbaa !58
  %10 = load ptr, ptr %5, align 8, !tbaa !17
  %11 = call noundef ptr @_ZNKSt7__cxx1112basic_stringIcSt11char_traitsIcESaIcEE5c_strEv(ptr noundef nonnull align 8 dereferenceable(32) %10) #14
  %12 = getelementptr inbounds nuw %struct.TimeResults, ptr %7, i32 0, i32 1
  %13 = load i32, ptr %12, align 4, !tbaa !56
  %14 = getelementptr inbounds nuw %struct.TimeResults, ptr %7, i32 0, i32 0
  %15 = load i32, ptr %14, align 4, !tbaa !58
  %16 = uitofp i32 %15 to double
  %17 = getelementptr inbounds nuw %struct.TimeResults, ptr %7, i32 0, i32 1
  %18 = load i32, ptr %17, align 4, !tbaa !56
  %19 = uitofp i32 %18 to double
  %20 = fdiv double %16, %19
  %21 = fmul double %20, 1.000000e+06
  %22 = load i64, ptr %6, align 8, !tbaa !13
  %23 = getelementptr inbounds nuw %struct.TimeResults, ptr %7, i32 0, i32 0
  %24 = load i32, ptr %23, align 4, !tbaa !58
  %25 = zext i32 %24 to i64
  %26 = mul i64 %22, %25
  %27 = uitofp i64 %26 to double
  %28 = getelementptr inbounds nuw %struct.TimeResults, ptr %7, i32 0, i32 1
  %29 = load i32, ptr %28, align 4, !tbaa !56
  %30 = uitofp i32 %29 to double
  %31 = fdiv double %27, %30
  %32 = call i32 (ptr, ...) @printf(ptr noundef @.str.30, i32 noundef %9, ptr noundef %11, i32 noundef %13, double noundef %21, double noundef %31)
  ret void
}

; Function Attrs: mustprogress nounwind uwtable
define linkonce_odr void @_ZNSt14_Function_baseD2Ev(ptr noundef nonnull align 8 dereferenceable(24) %0) unnamed_addr #2 comdat align 2 personality ptr @__gxx_personality_v0 {
  %2 = alloca ptr, align 8
  store ptr %0, ptr %2, align 8, !tbaa !64
  %3 = load ptr, ptr %2, align 8
  %4 = getelementptr inbounds nuw %"class.std::_Function_base", ptr %3, i32 0, i32 1
  %5 = load ptr, ptr %4, align 8, !tbaa !63
  %6 = icmp ne ptr %5, null
  br i1 %6, label %7, label %14

7:                                                ; preds = %1
  %8 = getelementptr inbounds nuw %"class.std::_Function_base", ptr %3, i32 0, i32 1
  %9 = load ptr, ptr %8, align 8, !tbaa !63
  %10 = getelementptr inbounds nuw %"class.std::_Function_base", ptr %3, i32 0, i32 0
  %11 = getelementptr inbounds nuw %"class.std::_Function_base", ptr %3, i32 0, i32 0
  %12 = invoke noundef zeroext i1 %9(ptr noundef nonnull align 8 dereferenceable(16) %10, ptr noundef nonnull align 8 dereferenceable(16) %11, i32 noundef 3)
          to label %13 unwind label %15

13:                                               ; preds = %7
  br label %14

14:                                               ; preds = %13, %1
  ret void

15:                                               ; preds = %7
  %16 = landingpad { ptr, i32 }
          catch ptr null
  %17 = extractvalue { ptr, i32 } %16, 0
  call void @__clang_call_terminate(ptr %17) #15
  unreachable
}

; Function Attrs: mustprogress uwtable
define internal void @"_ZNSt8functionIFbvEEC2IZL14SpeedHashChunkPK9env_md_stRKNSt7__cxx1112basic_stringIcSt11char_traitsIcESaIcEEEmE3$_0vEEOT_"(ptr noundef nonnull align 8 dereferenceable(32) %0, ptr noundef nonnull align 8 dereferenceable(32) %1) unnamed_addr #0 align 2 personality ptr @__gxx_personality_v0 {
  %3 = alloca ptr, align 8
  %4 = alloca ptr, align 8
  %5 = alloca ptr, align 8
  %6 = alloca i32, align 4
  store ptr %0, ptr %3, align 8, !tbaa !51
  store ptr %1, ptr %4, align 8, !tbaa !59
  %7 = load ptr, ptr %3, align 8
  %8 = getelementptr inbounds i8, ptr %7, i64 0
  call void @llvm.memset.p0.i64(ptr align 8 %8, i8 0, i64 24, i1 false)
  call void @_ZNSt14_Function_baseC2Ev(ptr noundef nonnull align 8 dereferenceable(24) %7) #14
  %9 = getelementptr inbounds nuw %"class.std::function", ptr %7, i32 0, i32 1
  store ptr null, ptr %9, align 8, !tbaa !60
  %10 = load ptr, ptr %4, align 8, !tbaa !59
  %11 = call noundef zeroext i1 @"_ZNSt14_Function_base13_Base_managerIZL14SpeedHashChunkPK9env_md_stRKNSt7__cxx1112basic_stringIcSt11char_traitsIcESaIcEEEmE3$_0E21_M_not_empty_functionISC_EEbRKT_"(ptr noundef nonnull align 8 dereferenceable(32) %10) #14
  br i1 %11, label %12, label %22

12:                                               ; preds = %2
  %13 = getelementptr inbounds nuw %"class.std::_Function_base", ptr %7, i32 0, i32 0
  %14 = load ptr, ptr %4, align 8, !tbaa !59
  invoke void @"_ZNSt14_Function_base13_Base_managerIZL14SpeedHashChunkPK9env_md_stRKNSt7__cxx1112basic_stringIcSt11char_traitsIcESaIcEEEmE3$_0E15_M_init_functorISC_EEvRSt9_Any_dataOT_"(ptr noundef nonnull align 8 dereferenceable(16) %13, ptr noundef nonnull align 8 dereferenceable(32) %14)
          to label %15 unwind label %18

15:                                               ; preds = %12
  %16 = getelementptr inbounds nuw %"class.std::function", ptr %7, i32 0, i32 1
  store ptr @"_ZNSt17_Function_handlerIFbvEZL14SpeedHashChunkPK9env_md_stRKNSt7__cxx1112basic_stringIcSt11char_traitsIcESaIcEEEmE3$_0E9_M_invokeERKSt9_Any_data", ptr %16, align 8, !tbaa !60
  %17 = getelementptr inbounds nuw %"class.std::_Function_base", ptr %7, i32 0, i32 1
  store ptr @"_ZNSt17_Function_handlerIFbvEZL14SpeedHashChunkPK9env_md_stRKNSt7__cxx1112basic_stringIcSt11char_traitsIcESaIcEEEmE3$_0E10_M_managerERSt9_Any_dataRKSE_St18_Manager_operation", ptr %17, align 8, !tbaa !63
  br label %22

18:                                               ; preds = %12
  %19 = landingpad { ptr, i32 }
          cleanup
  %20 = extractvalue { ptr, i32 } %19, 0
  store ptr %20, ptr %5, align 8
  %21 = extractvalue { ptr, i32 } %19, 1
  store i32 %21, ptr %6, align 4
  call void @_ZNSt14_Function_baseD2Ev(ptr noundef nonnull align 8 dereferenceable(24) %7) #14
  br label %23

22:                                               ; preds = %15, %2
  ret void

23:                                               ; preds = %18
  %24 = load ptr, ptr %5, align 8
  %25 = load i32, ptr %6, align 4
  %26 = insertvalue { ptr, i32 } poison, ptr %24, 0
  %27 = insertvalue { ptr, i32 } %26, i32 %25, 1
  resume { ptr, i32 } %27
}

; Function Attrs: mustprogress uwtable
define internal noundef zeroext i1 @_ZL14SpeedHashChunkPK9env_md_stRKNSt7__cxx1112basic_stringIcSt11char_traitsIcESaIcEEEm(ptr noundef %0, ptr noundef nonnull align 8 dereferenceable(32) %1, i64 noundef %2) #0 personality ptr @__gxx_personality_v0 {
  %4 = alloca i1, align 1
  %5 = alloca ptr, align 8
  %6 = alloca ptr, align 8
  %7 = alloca i64, align 8
  %8 = alloca ptr, align 8
  %9 = alloca [8192 x i8], align 16
  %10 = alloca i32, align 4
  %11 = alloca %struct.TimeResults, align 4
  %12 = alloca %"class.std::function", align 8
  %13 = alloca %class.anon.7, align 8
  %14 = alloca ptr, align 8
  %15 = alloca i32, align 4
  store ptr %0, ptr %5, align 8, !tbaa !41
  store ptr %1, ptr %6, align 8, !tbaa !17
  store i64 %2, ptr %7, align 8, !tbaa !13
  call void @llvm.lifetime.start.p0(i64 8, ptr %8) #14
  %16 = call ptr @EVP_MD_CTX_create()
  store ptr %16, ptr %8, align 8, !tbaa !127
  call void @llvm.lifetime.start.p0(i64 8192, ptr %9) #14
  %17 = load i64, ptr %7, align 8, !tbaa !13
  %18 = icmp ugt i64 %17, 8192
  br i1 %18, label %19, label %20

19:                                               ; preds = %3
  store i1 false, ptr %4, align 1
  store i32 1, ptr %10, align 4
  br label %44

20:                                               ; preds = %3
  call void @llvm.lifetime.start.p0(i64 8, ptr %11) #14
  call void @llvm.lifetime.start.p0(i64 32, ptr %13) #14
  %21 = getelementptr inbounds nuw %class.anon.7, ptr %13, i32 0, i32 0
  %22 = load ptr, ptr %8, align 8, !tbaa !127
  store ptr %22, ptr %21, align 8, !tbaa !129
  %23 = getelementptr inbounds nuw %class.anon.7, ptr %13, i32 0, i32 1
  %24 = load ptr, ptr %5, align 8, !tbaa !41
  store ptr %24, ptr %23, align 8, !tbaa !131
  %25 = getelementptr inbounds nuw %class.anon.7, ptr %13, i32 0, i32 2
  %26 = load i64, ptr %7, align 8, !tbaa !13
  store i64 %26, ptr %25, align 8, !tbaa !132
  %27 = getelementptr inbounds nuw %class.anon.7, ptr %13, i32 0, i32 3
  store ptr %9, ptr %27, align 8, !tbaa !28
  call void @"_ZNSt8functionIFbvEEC2IZL14SpeedHashChunkPK9env_md_stRKNSt7__cxx1112basic_stringIcSt11char_traitsIcESaIcEEEmE3$_0vEEOT_"(ptr noundef nonnull align 8 dereferenceable(32) %12, ptr noundef nonnull align 8 dereferenceable(32) %13)
  %28 = invoke noundef zeroext i1 @_ZL12TimeFunctionP11TimeResultsSt8functionIFbvEE(ptr noundef %11, ptr noundef %12)
          to label %29 unwind label %35

29:                                               ; preds = %20
  %30 = xor i1 %28, true
  call void @_ZNSt14_Function_baseD2Ev(ptr noundef nonnull align 8 dereferenceable(32) %12) #14
  call void @llvm.lifetime.end.p0(i64 32, ptr %13) #14
  br i1 %30, label %31, label %39

31:                                               ; preds = %29
  %32 = load ptr, ptr @stderr, align 8, !tbaa !11
  %33 = call i32 (ptr, ptr, ...) @fprintf(ptr noundef %32, ptr noundef @.str.32) #14
  %34 = load ptr, ptr @stderr, align 8, !tbaa !11
  call void @ERR_print_errors_fp(ptr noundef %34)
  store i1 false, ptr %4, align 1
  store i32 1, ptr %10, align 4
  br label %43

35:                                               ; preds = %20
  %36 = landingpad { ptr, i32 }
          cleanup
  %37 = extractvalue { ptr, i32 } %36, 0
  store ptr %37, ptr %14, align 8
  %38 = extractvalue { ptr, i32 } %36, 1
  store i32 %38, ptr %15, align 4
  call void @_ZNSt14_Function_baseD2Ev(ptr noundef nonnull align 8 dereferenceable(32) %12) #14
  call void @llvm.lifetime.end.p0(i64 32, ptr %13) #14
  call void @llvm.lifetime.end.p0(i64 8, ptr %11) #14
  call void @llvm.lifetime.end.p0(i64 8192, ptr %9) #14
  call void @llvm.lifetime.end.p0(i64 8, ptr %8) #14
  br label %46

39:                                               ; preds = %29
  %40 = load ptr, ptr %6, align 8, !tbaa !17
  %41 = load i64, ptr %7, align 8, !tbaa !13
  call void @_ZN11TimeResults14PrintWithBytesERKNSt7__cxx1112basic_stringIcSt11char_traitsIcESaIcEEEm(ptr noundef nonnull align 4 dereferenceable(8) %11, ptr noundef nonnull align 8 dereferenceable(32) %40, i64 noundef %41)
  %42 = load ptr, ptr %8, align 8, !tbaa !127
  call void @EVP_MD_CTX_destroy(ptr noundef %42)
  store i1 true, ptr %4, align 1
  store i32 1, ptr %10, align 4
  br label %43

43:                                               ; preds = %39, %31
  call void @llvm.lifetime.end.p0(i64 8, ptr %11) #14
  br label %44

44:                                               ; preds = %43, %19
  call void @llvm.lifetime.end.p0(i64 8192, ptr %9) #14
  call void @llvm.lifetime.end.p0(i64 8, ptr %8) #14
  %45 = load i1, ptr %4, align 1
  ret i1 %45

46:                                               ; preds = %35
  %47 = load ptr, ptr %14, align 8
  %48 = load i32, ptr %15, align 4
  %49 = insertvalue { ptr, i32 } poison, ptr %47, 0
  %50 = insertvalue { ptr, i32 } %49, i32 %48, 1
  resume { ptr, i32 } %50
}