; Function Attrs: mustprogress uwtable
define internal fastcc noundef zeroext i1 @_ZL14SpeedHashChunkPK9env_md_stRKNSt7__cxx1112basic_stringIcSt11char_traitsIcESaIcEEEm(ptr noundef %0, ptr noundef nonnull readonly align 8 captures(none) dereferenceable(32) %1, i64 noundef range(i64 16, 8193) %2) unnamed_addr #0 personality ptr @__gxx_personality_v0 {
  %4 = alloca [8192 x i8], align 16
  %5 = alloca %struct.TimeResults, align 4
  %6 = alloca %"class.std::function", align 8
  %7 = tail call ptr @EVP_MD_CTX_create()
  call void @llvm.lifetime.start.p0(i64 8192, ptr nonnull %4) #19
  call void @llvm.lifetime.start.p0(i64 8, ptr nonnull %5) #19
  %8 = getelementptr inbounds nuw i8, ptr %6, i64 16
  %9 = getelementptr inbounds nuw i8, ptr %6, i64 24
  %10 = getelementptr inbounds nuw i8, ptr %6, i64 8
  store i64 0, ptr %10, align 8
  %11 = tail call noalias noundef nonnull dereferenceable(32) ptr @_Znwm(i64 noundef 32) #22
  store ptr %7, ptr %11, align 16, !tbaa !105
  %.sroa.5.0..sroa_idx = getelementptr inbounds nuw i8, ptr %11, i64 8
  store ptr %0, ptr %.sroa.5.0..sroa_idx, align 8, !tbaa !107
  %.sroa.6.0..sroa_idx = getelementptr inbounds nuw i8, ptr %11, i64 16
  store i64 %2, ptr %.sroa.6.0..sroa_idx, align 16, !tbaa !22
  %.sroa.7.0..sroa_idx = getelementptr inbounds nuw i8, ptr %11, i64 24
  store ptr %4, ptr %.sroa.7.0..sroa_idx, align 8, !tbaa !24
  store ptr %11, ptr %6, align 8, !tbaa !31
  store ptr @"_ZNSt17_Function_handlerIFbvEZL14SpeedHashChunkPK9env_md_stRKNSt7__cxx1112basic_stringIcSt11char_traitsIcESaIcEEEmE3$_0E9_M_invokeERKSt9_Any_data", ptr %9, align 8, !tbaa !32
  store ptr @"_ZNSt17_Function_handlerIFbvEZL14SpeedHashChunkPK9env_md_stRKNSt7__cxx1112basic_stringIcSt11char_traitsIcESaIcEEEmE3$_0E10_M_managerERSt9_Any_dataRKSE_St18_Manager_operation", ptr %8, align 8, !tbaa !35
  %12 = invoke fastcc noundef zeroext i1 @_ZL12TimeFunctionP11TimeResultsSt8functionIFbvEE(ptr noundef %5, ptr noundef %6)
          to label %13 unwind label %24

13:                                               ; preds = %3
  %14 = load ptr, ptr %8, align 8, !tbaa !35
  %.not.i = icmp eq ptr %14, null
  br i1 %.not.i, label %_ZNSt14_Function_baseD2Ev.exit, label %15

15:                                               ; preds = %13
  %16 = invoke noundef zeroext i1 %14(ptr noundef nonnull align 8 dereferenceable(32) %6, ptr noundef nonnull align 8 dereferenceable(32) %6, i32 noundef 3)
          to label %_ZNSt14_Function_baseD2Ev.exit unwind label %17

17:                                               ; preds = %15
  %18 = landingpad { ptr, i32 }
          catch ptr null
  %19 = extractvalue { ptr, i32 } %18, 0
  call void @__clang_call_terminate(ptr %19) #23
  unreachable

_ZNSt14_Function_baseD2Ev.exit:                   ; preds = %13, %15
  br i1 %12, label %32, label %20

20:                                               ; preds = %_ZNSt14_Function_baseD2Ev.exit
  %21 = load ptr, ptr @stderr, align 8, !tbaa !20
  %22 = call i64 @fwrite(ptr nonnull @.str.32, i64 26, i64 1, ptr %21) #20
  %23 = load ptr, ptr @stderr, align 8, !tbaa !20
  call void @ERR_print_errors_fp(ptr noundef %23)
  br label %46

24:                                               ; preds = %3
  %25 = landingpad { ptr, i32 }
          cleanup
  %26 = load ptr, ptr %8, align 8, !tbaa !35
  %.not.i10 = icmp eq ptr %26, null
  br i1 %.not.i10, label %_ZNSt14_Function_baseD2Ev.exit11, label %27

27:                                               ; preds = %24
  %28 = invoke noundef zeroext i1 %26(ptr noundef nonnull align 8 dereferenceable(32) %6, ptr noundef nonnull align 8 dereferenceable(32) %6, i32 noundef 3)
          to label %_ZNSt14_Function_baseD2Ev.exit11 unwind label %29

29:                                               ; preds = %27
  %30 = landingpad { ptr, i32 }
          catch ptr null
  %31 = extractvalue { ptr, i32 } %30, 0
  call void @__clang_call_terminate(ptr %31) #23
  unreachable

_ZNSt14_Function_baseD2Ev.exit11:                 ; preds = %24, %27
  call void @llvm.lifetime.end.p0(i64 8, ptr nonnull %5) #19
  call void @llvm.lifetime.end.p0(i64 8192, ptr nonnull %4) #19
  resume { ptr, i32 } %25

32:                                               ; preds = %_ZNSt14_Function_baseD2Ev.exit
  %33 = load i32, ptr %5, align 4, !tbaa !39
  %34 = load ptr, ptr %1, align 8, !tbaa !23
  %35 = getelementptr inbounds nuw i8, ptr %5, i64 4
  %36 = load i32, ptr %35, align 4, !tbaa !42
  %37 = uitofp i32 %33 to double
  %38 = uitofp i32 %36 to double
  %39 = fdiv double %37, %38
  %40 = fmul double %39, 1.000000e+06
  %41 = zext i32 %33 to i64
  %42 = mul nuw nsw i64 %2, %41
  %43 = uitofp nneg i64 %42 to double
  %44 = fdiv double %43, %38
  %45 = call i32 (ptr, ...) @printf(ptr noundef nonnull dereferenceable(1) @.str.30, i32 noundef %33, ptr noundef %34, i32 noundef %36, double noundef %40, double noundef %44)
  call void @EVP_MD_CTX_destroy(ptr noundef %7)
  br label %46

46:                                               ; preds = %32, %20
  call void @llvm.lifetime.end.p0(i64 8, ptr nonnull %5) #19
  call void @llvm.lifetime.end.p0(i64 8192, ptr nonnull %4) #19
  ret i1 %12
}